; Listing generated by Microsoft (R) Optimizing Compiler Version 19.16.27025.1 

include listing.inc

INCLUDELIB MSVCRTD
INCLUDELIB OLDNAMES

CONST	SEGMENT
$SG254117 DB	'c:\qt\5.13.1\msvc2017_64\include\qtcore\qmetatype.h', 00H
	ORG $+12
$SG254118 DB	'qRegisterNormalizedMetaType was called with a not normal'
	DB	'ized type name, please call qRegisterMetaType instead.', 00H
	ORG $+1
$SG254119 DB	'qRegisterNormalizedMetaType', 00H
	ORG $+4
$SG254547 DB	'c:\qt\5.13.1\msvc2017_64\include\qtcore\qmetatype.h', 00H
	ORG $+12
$SG254548 DB	'qRegisterNormalizedMetaType was called with a not normal'
	DB	'ized type name, please call qRegisterMetaType instead.', 00H
	ORG $+1
$SG254549 DB	'qRegisterNormalizedMetaType', 00H
	ORG $+4
$SG248607 DB	'c:\qt\5.13.1\msvc2017_64\include\qtcore\qmetatype.h', 00H
	ORG $+12
$SG248608 DB	'qRegisterNormalizedMetaType was called with a not normal'
	DB	'ized type name, please call qRegisterMetaType instead.', 00H
	ORG $+1
$SG248609 DB	'qRegisterNormalizedMetaType', 00H
	ORG $+4
$SG251613 DB	'c:\qt\5.13.1\msvc2017_64\include\qtcore\qmetatype.h', 00H
	ORG $+12
$SG251614 DB	'qRegisterNormalizedMetaType was called with a not normal'
	DB	'ized type name, please call qRegisterMetaType instead.', 00H
	ORG $+1
$SG251615 DB	'qRegisterNormalizedMetaType', 00H
	ORG $+4
$SG251950 DB	'c:\qt\5.13.1\msvc2017_64\include\qtcore\qmetatype.h', 00H
	ORG $+12
$SG251951 DB	'qRegisterNormalizedMetaType was called with a not normal'
	DB	'ized type name, please call qRegisterMetaType instead.', 00H
	ORG $+1
$SG251952 DB	'qRegisterNormalizedMetaType', 00H
	ORG $+4
$SG252287 DB	'c:\qt\5.13.1\msvc2017_64\include\qtcore\qmetatype.h', 00H
	ORG $+12
$SG252288 DB	'qRegisterNormalizedMetaType was called with a not normal'
	DB	'ized type name, please call qRegisterMetaType instead.', 00H
	ORG $+1
$SG252289 DB	'qRegisterNormalizedMetaType', 00H
	ORG $+4
$SG253106 DB	'c:\qt\5.13.1\msvc2017_64\include\qtcore\qmetatype.h', 00H
	ORG $+12
$SG253107 DB	'qRegisterNormalizedMetaType was called with a not normal'
	DB	'ized type name, please call qRegisterMetaType instead.', 00H
	ORG $+1
$SG253108 DB	'qRegisterNormalizedMetaType', 00H
	ORG $+4
?qt_meta_stringdata_IntegrityFile@@3Uqt_meta_stringdata_IntegrityFile_t@@B DD 0ffffffffH ; qt_meta_stringdata_IntegrityFile
	DD	0dH
	DD	00H
	ORG $+4
	DQ	0000000000000018H
	DB	049H
	DB	06eH
	DB	074H
	DB	065H
	DB	067H
	DB	072H
	DB	069H
	DB	074H
	DB	079H
	DB	046H
	DB	069H
	DB	06cH
	DB	065H
	DB	00H
	ORG $+2
?qt_meta_data_IntegrityFile@@3QBIB DD 08H		; qt_meta_data_IntegrityFile
	DD	00H
	DD	00H
	DD	00H
	DD	00H
	DD	00H
	DD	00H
	DD	00H
	DD	00H
	DD	00H
	DD	00H
	DD	00H
	DD	00H
	DD	00H
	DD	00H
	ORG $+4
$SG253443 DB	'c:\qt\5.13.1\msvc2017_64\include\qtcore\qmetatype.h', 00H
	ORG $+4
$SG253444 DB	'qRegisterNormalizedMetaType was called with a not normal'
	DB	'ized type name, please call qRegisterMetaType instead.', 00H
	ORG $+1
$SG253445 DB	'qRegisterNormalizedMetaType', 00H
	ORG $+4
$SG253780 DB	'c:\qt\5.13.1\msvc2017_64\include\qtcore\qmetatype.h', 00H
	ORG $+12
$SG253781 DB	'qRegisterNormalizedMetaType was called with a not normal'
	DB	'ized type name, please call qRegisterMetaType instead.', 00H
	ORG $+1
$SG253782 DB	'qRegisterNormalizedMetaType', 00H
CONST	ENDS
PUBLIC	?__empty_global_delete@@YAXPEAX@Z		; __empty_global_delete
PUBLIC	?__empty_global_delete@@YAXPEAX_K@Z		; __empty_global_delete
PUBLIC	??C?$QScopedPointer@VQObjectData@@U?$QScopedPointerDeleter@VQObjectData@@@@@@QEBAPEAVQObjectData@@XZ ; QScopedPointer<QObjectData,QScopedPointerDeleter<QObjectData> >::operator->
PUBLIC	?metaObject@IntegrityFile@@UEBAPEBUQMetaObject@@XZ ; IntegrityFile::metaObject
PUBLIC	?qt_metacast@IntegrityFile@@UEAAPEAXPEBD@Z	; IntegrityFile::qt_metacast
PUBLIC	?qt_metacall@IntegrityFile@@UEAAHW4Call@QMetaObject@@HPEAPEAX@Z ; IntegrityFile::qt_metacall
PUBLIC	?qt_static_metacall@IntegrityFile@@CAXPEAVQObject@@W4Call@QMetaObject@@HPEAPEAX@Z ; IntegrityFile::qt_static_metacall
PUBLIC	?staticMetaObject@IntegrityFile@@2UQMetaObject@@B ; IntegrityFile::staticMetaObject
EXTRN	strcmp:PROC
EXTRN	__imp_?dynamicMetaObject@QObjectData@@QEBAPEAUQMetaObject@@XZ:PROC
EXTRN	__imp_?qt_metacast@QDialog@@UEAAPEAXPEBD@Z:PROC
EXTRN	__imp_?qt_metacall@QDialog@@UEAAHW4Call@QMetaObject@@HPEAPEAX@Z:PROC
EXTRN	__imp_?staticMetaObject@QDialog@@2UQMetaObject@@B:BYTE
_BSS	SEGMENT
?staticMetaObject@IntegrityFile@@2UQMetaObject@@B DB 030H DUP (?) ; IntegrityFile::staticMetaObject
_BSS	ENDS
pdata	SEGMENT
$pdata$?metaObject@IntegrityFile@@UEBAPEBUQMetaObject@@XZ DD imagerel $LN5
	DD	imagerel $LN5+88
	DD	imagerel $unwind$?metaObject@IntegrityFile@@UEBAPEBUQMetaObject@@XZ
$pdata$?qt_metacast@IntegrityFile@@UEAAPEAXPEBD@Z DD imagerel $LN5
	DD	imagerel $LN5+75
	DD	imagerel $unwind$?qt_metacast@IntegrityFile@@UEAAPEAXPEBD@Z
$pdata$?qt_metacall@IntegrityFile@@UEAAHW4Call@QMetaObject@@HPEAPEAX@Z DD imagerel $LN3
	DD	imagerel $LN3+61
	DD	imagerel $unwind$?qt_metacall@IntegrityFile@@UEAAHW4Call@QMetaObject@@HPEAPEAX@Z
pdata	ENDS
CRT$XCU	SEGMENT
??staticMetaObject$initializer$@IntegrityFile@@2P6AXXZEA@@3P6AXXZEA DQ FLAT:??__E?staticMetaObject@IntegrityFile@@2UQMetaObject@@B@@YAXXZ ; ??staticMetaObject$initializer$@IntegrityFile@@2P6AXXZEA@@3P6AXXZEA
CRT$XCU	ENDS
xdata	SEGMENT
$unwind$?metaObject@IntegrityFile@@UEBAPEBUQMetaObject@@XZ DD 010901H
	DD	06209H
$unwind$?qt_metacast@IntegrityFile@@UEAAPEAXPEBD@Z DD 010e01H
	DD	0420eH
$unwind$?qt_metacall@IntegrityFile@@UEAAHW4Call@QMetaObject@@HPEAPEAX@Z DD 011701H
	DD	04217H
xdata	ENDS
; Function compile flags: /Odtp
;	COMDAT ??__E?staticMetaObject@IntegrityFile@@2UQMetaObject@@B@@YAXXZ
text$di	SEGMENT
??__E?staticMetaObject@IntegrityFile@@2UQMetaObject@@B@@YAXXZ PROC ; `dynamic initializer for 'IntegrityFile::staticMetaObject'', COMDAT
; File c:\users\user\desktop\mbks_1\mbks_1\debug\moc_integrityfile.cpp
; Line 67
	mov	rax, QWORD PTR __imp_?staticMetaObject@QDialog@@2UQMetaObject@@B
	mov	QWORD PTR ?staticMetaObject@IntegrityFile@@2UQMetaObject@@B, rax
; Line 68
	lea	rax, OFFSET FLAT:?qt_meta_stringdata_IntegrityFile@@3Uqt_meta_stringdata_IntegrityFile_t@@B
	mov	QWORD PTR ?staticMetaObject@IntegrityFile@@2UQMetaObject@@B+8, rax
; Line 69
	lea	rax, OFFSET FLAT:?qt_meta_data_IntegrityFile@@3QBIB
	mov	QWORD PTR ?staticMetaObject@IntegrityFile@@2UQMetaObject@@B+16, rax
; Line 70
	lea	rax, OFFSET FLAT:?qt_static_metacall@IntegrityFile@@CAXPEAVQObject@@W4Call@QMetaObject@@HPEAPEAX@Z ; IntegrityFile::qt_static_metacall
	mov	QWORD PTR ?staticMetaObject@IntegrityFile@@2UQMetaObject@@B+24, rax
; Line 71
	mov	QWORD PTR ?staticMetaObject@IntegrityFile@@2UQMetaObject@@B+32, 0
; Line 72
	mov	QWORD PTR ?staticMetaObject@IntegrityFile@@2UQMetaObject@@B+40, 0
	ret	0
??__E?staticMetaObject@IntegrityFile@@2UQMetaObject@@B@@YAXXZ ENDP ; `dynamic initializer for 'IntegrityFile::staticMetaObject''
text$di	ENDS
; Function compile flags: /Odtp
_TEXT	SEGMENT
_o$ = 8
_c$ = 16
_id$ = 24
_a$ = 32
?qt_static_metacall@IntegrityFile@@CAXPEAVQObject@@W4Call@QMetaObject@@HPEAPEAX@Z PROC ; IntegrityFile::qt_static_metacall
; File c:\users\user\desktop\mbks_1\mbks_1\debug\moc_integrityfile.cpp
; Line 59
	mov	QWORD PTR [rsp+32], r9
	mov	DWORD PTR [rsp+24], r8d
	mov	DWORD PTR [rsp+16], edx
	mov	QWORD PTR [rsp+8], rcx
; Line 64
	ret	0
?qt_static_metacall@IntegrityFile@@CAXPEAVQObject@@W4Call@QMetaObject@@HPEAPEAX@Z ENDP ; IntegrityFile::qt_static_metacall
_TEXT	ENDS
; Function compile flags: /Odtp
_TEXT	SEGMENT
this$ = 48
_c$ = 56
_id$ = 64
_a$ = 72
?qt_metacall@IntegrityFile@@UEAAHW4Call@QMetaObject@@HPEAPEAX@Z PROC ; IntegrityFile::qt_metacall
; File c:\users\user\desktop\mbks_1\mbks_1\debug\moc_integrityfile.cpp
; Line 90
$LN3:
	mov	QWORD PTR [rsp+32], r9
	mov	DWORD PTR [rsp+24], r8d
	mov	DWORD PTR [rsp+16], edx
	mov	QWORD PTR [rsp+8], rcx
	sub	rsp, 40					; 00000028H
; Line 91
	mov	r9, QWORD PTR _a$[rsp]
	mov	r8d, DWORD PTR _id$[rsp]
	mov	edx, DWORD PTR _c$[rsp]
	mov	rcx, QWORD PTR this$[rsp]
	call	QWORD PTR __imp_?qt_metacall@QDialog@@UEAAHW4Call@QMetaObject@@HPEAPEAX@Z
	mov	DWORD PTR _id$[rsp], eax
; Line 92
	mov	eax, DWORD PTR _id$[rsp]
; Line 93
	add	rsp, 40					; 00000028H
	ret	0
?qt_metacall@IntegrityFile@@UEAAHW4Call@QMetaObject@@HPEAPEAX@Z ENDP ; IntegrityFile::qt_metacall
_TEXT	ENDS
; Function compile flags: /Odtp
_TEXT	SEGMENT
this$ = 48
_clname$ = 56
?qt_metacast@IntegrityFile@@UEAAPEAXPEBD@Z PROC		; IntegrityFile::qt_metacast
; File c:\users\user\desktop\mbks_1\mbks_1\debug\moc_integrityfile.cpp
; Line 82
$LN5:
	mov	QWORD PTR [rsp+16], rdx
	mov	QWORD PTR [rsp+8], rcx
	sub	rsp, 40					; 00000028H
; Line 83
	cmp	QWORD PTR _clname$[rsp], 0
	jne	SHORT $LN2@qt_metacas
	xor	eax, eax
	jmp	SHORT $LN1@qt_metacas
$LN2@qt_metacas:
; Line 84
	lea	rdx, OFFSET FLAT:?qt_meta_stringdata_IntegrityFile@@3Uqt_meta_stringdata_IntegrityFile_t@@B+24
	mov	rcx, QWORD PTR _clname$[rsp]
	call	strcmp
	test	eax, eax
	jne	SHORT $LN3@qt_metacas
; Line 85
	mov	rax, QWORD PTR this$[rsp]
	jmp	SHORT $LN1@qt_metacas
$LN3@qt_metacas:
; Line 86
	mov	rdx, QWORD PTR _clname$[rsp]
	mov	rcx, QWORD PTR this$[rsp]
	call	QWORD PTR __imp_?qt_metacast@QDialog@@UEAAPEAXPEBD@Z
$LN1@qt_metacas:
; Line 87
	add	rsp, 40					; 00000028H
	ret	0
?qt_metacast@IntegrityFile@@UEAAPEAXPEBD@Z ENDP		; IntegrityFile::qt_metacast
_TEXT	ENDS
; Function compile flags: /Odtp
_TEXT	SEGMENT
tv82 = 32
this$ = 64
?metaObject@IntegrityFile@@UEBAPEBUQMetaObject@@XZ PROC	; IntegrityFile::metaObject
; File c:\users\user\desktop\mbks_1\mbks_1\debug\moc_integrityfile.cpp
; Line 77
$LN5:
	mov	QWORD PTR [rsp+8], rcx
	sub	rsp, 56					; 00000038H
; Line 78
	mov	rax, QWORD PTR this$[rsp]
	add	rax, 8
	mov	rcx, rax
	call	??C?$QScopedPointer@VQObjectData@@U?$QScopedPointerDeleter@VQObjectData@@@@@@QEBAPEAVQObjectData@@XZ ; QScopedPointer<QObjectData,QScopedPointerDeleter<QObjectData> >::operator->
	cmp	QWORD PTR [rax+40], 0
	je	SHORT $LN3@metaObject
	mov	rax, QWORD PTR this$[rsp]
	add	rax, 8
	mov	rcx, rax
	call	??C?$QScopedPointer@VQObjectData@@U?$QScopedPointerDeleter@VQObjectData@@@@@@QEBAPEAVQObjectData@@XZ ; QScopedPointer<QObjectData,QScopedPointerDeleter<QObjectData> >::operator->
	mov	rcx, rax
	call	QWORD PTR __imp_?dynamicMetaObject@QObjectData@@QEBAPEAUQMetaObject@@XZ
	mov	QWORD PTR tv82[rsp], rax
	jmp	SHORT $LN4@metaObject
$LN3@metaObject:
	lea	rax, OFFSET FLAT:?staticMetaObject@IntegrityFile@@2UQMetaObject@@B ; IntegrityFile::staticMetaObject
	mov	QWORD PTR tv82[rsp], rax
$LN4@metaObject:
	mov	rax, QWORD PTR tv82[rsp]
; Line 79
	add	rsp, 56					; 00000038H
	ret	0
?metaObject@IntegrityFile@@UEBAPEBUQMetaObject@@XZ ENDP	; IntegrityFile::metaObject
_TEXT	ENDS
; Function compile flags: /Odtp
;	COMDAT ??C?$QScopedPointer@VQObjectData@@U?$QScopedPointerDeleter@VQObjectData@@@@@@QEBAPEAVQObjectData@@XZ
_TEXT	SEGMENT
this$ = 8
??C?$QScopedPointer@VQObjectData@@U?$QScopedPointerDeleter@VQObjectData@@@@@@QEBAPEAVQObjectData@@XZ PROC ; QScopedPointer<QObjectData,QScopedPointerDeleter<QObjectData> >::operator->, COMDAT
; File c:\qt\5.13.1\msvc2017_64\include\qtcore\qscopedpointer.h
; Line 117
	mov	QWORD PTR [rsp+8], rcx
; Line 118
	mov	rax, QWORD PTR this$[rsp]
	mov	rax, QWORD PTR [rax]
; Line 119
	ret	0
??C?$QScopedPointer@VQObjectData@@U?$QScopedPointerDeleter@VQObjectData@@@@@@QEBAPEAVQObjectData@@XZ ENDP ; QScopedPointer<QObjectData,QScopedPointerDeleter<QObjectData> >::operator->
_TEXT	ENDS
; Function compile flags: /Odtp
;	COMDAT ?__empty_global_delete@@YAXPEAX_K@Z
_TEXT	SEGMENT
__formal$ = 8
__formal$ = 16
?__empty_global_delete@@YAXPEAX_K@Z PROC		; __empty_global_delete, COMDAT
; File c:\users\user\desktop\mbks_1\mbks_1\debug\moc_integrityfile.cpp
; Line 96
	mov	QWORD PTR [rsp+16], rdx
	mov	QWORD PTR [rsp+8], rcx
	ret	0
?__empty_global_delete@@YAXPEAX_K@Z ENDP		; __empty_global_delete
_TEXT	ENDS
; Function compile flags: /Odtp
;	COMDAT ?__empty_global_delete@@YAXPEAX@Z
_TEXT	SEGMENT
__formal$ = 8
?__empty_global_delete@@YAXPEAX@Z PROC			; __empty_global_delete, COMDAT
; File c:\users\user\desktop\mbks_1\mbks_1\debug\moc_integrityfile.cpp
; Line 96
	mov	QWORD PTR [rsp+8], rcx
	ret	0
?__empty_global_delete@@YAXPEAX@Z ENDP			; __empty_global_delete
_TEXT	ENDS
END
